; Function Attrs: mustprogress uwtable
define hidden void @_ZN3smt22theory_user_propagator10force_pushEv(ptr noundef nonnull align 8 dereferenceable(532) %0) local_unnamed_addr #4 align 2 personality ptr @__gxx_personality_v0 {
  %2 = alloca ptr, align 8
  %3 = alloca ptr, align 8
  %4 = getelementptr inbounds nuw i8, ptr %0, i64 408
  %5 = load i32, ptr %4, align 8, !tbaa !544
  %.not22 = icmp eq i32 %5, 0
  br i1 %.not22, label %._crit_edge, label %.lr.ph

.lr.ph:                                           ; preds = %1
  %6 = getelementptr inbounds nuw i8, ptr %0, i64 464
  %7 = getelementptr inbounds nuw i8, ptr %0, i64 392
  %8 = getelementptr inbounds nuw i8, ptr %0, i64 384
  %9 = getelementptr inbounds nuw i8, ptr %0, i64 488
  %10 = getelementptr inbounds nuw i8, ptr %0, i64 480
  %11 = getelementptr inbounds nuw i8, ptr %0, i64 64
  %12 = getelementptr inbounds nuw i8, ptr %0, i64 56
  %13 = getelementptr inbounds nuw i8, ptr %0, i64 88
  %14 = getelementptr inbounds nuw i8, ptr %0, i64 72
  %15 = getelementptr inbounds nuw i8, ptr %0, i64 96
  %.pre = load i8, ptr %6, align 8, !tbaa !545, !range !546
  br label %16

16:                                               ; preds = %.lr.ph, %65
  store i8 1, ptr %6, align 8, !tbaa !545
  invoke void @_ZN3smt6theory13push_scope_ehEv(ptr noundef nonnull align 8 dereferenceable(53) %0)
          to label %17 unwind label %.loopexit

17:                                               ; preds = %16
  %18 = load ptr, ptr %8, align 8, !tbaa !540
  %19 = icmp eq ptr %18, null
  br i1 %19, label %_ZNK6vectorIN3smt22theory_user_propagator9prop_infoELb1EjE4sizeEv.exit, label %20

20:                                               ; preds = %17
  %21 = getelementptr inbounds i8, ptr %18, i64 -4
  %22 = load i32, ptr %21, align 4, !tbaa !508
  br label %_ZNK6vectorIN3smt22theory_user_propagator9prop_infoELb1EjE4sizeEv.exit

_ZNK6vectorIN3smt22theory_user_propagator9prop_infoELb1EjE4sizeEv.exit: ; preds = %17, %20
  %.0.i = phi i32 [ %22, %20 ], [ 0, %17 ]
  %23 = load ptr, ptr %7, align 8, !tbaa !536
  %24 = icmp eq ptr %23, null
  br i1 %24, label %31, label %25

25:                                               ; preds = %_ZNK6vectorIN3smt22theory_user_propagator9prop_infoELb1EjE4sizeEv.exit
  %26 = getelementptr inbounds i8, ptr %23, i64 -4
  %27 = load i32, ptr %26, align 4, !tbaa !508
  %28 = getelementptr inbounds i8, ptr %23, i64 -8
  %29 = load i32, ptr %28, align 4, !tbaa !508
  %30 = icmp eq i32 %27, %29
  br i1 %30, label %31, label %32

31:                                               ; preds = %25, %_ZNK6vectorIN3smt22theory_user_propagator9prop_infoELb1EjE4sizeEv.exit
  invoke void @_ZN6vectorIjLb0EjE13expand_vectorEv(ptr noundef nonnull align 8 dereferenceable(8) %7)
          to label %.noexc unwind label %68

.noexc:                                           ; preds = %31
  %.pre.i = load ptr, ptr %7, align 8, !tbaa !536
  %.phi.trans.insert.i = getelementptr inbounds i8, ptr %.pre.i, i64 -4
  %.pre2.i = load i32, ptr %.phi.trans.insert.i, align 4, !tbaa !508
  br label %32

32:                                               ; preds = %.noexc, %25
  %33 = phi i32 [ %.pre2.i, %.noexc ], [ %27, %25 ]
  %34 = phi ptr [ %.pre.i, %.noexc ], [ %23, %25 ]
  %35 = getelementptr inbounds i8, ptr %34, i64 -4
  %36 = zext i32 %33 to i64
  %37 = getelementptr inbounds nuw i32, ptr %34, i64 %36
  store i32 %.0.i, ptr %37, align 4, !tbaa !508
  %38 = add i32 %33, 1
  store i32 %38, ptr %35, align 4, !tbaa !508
  %39 = load ptr, ptr %10, align 8, !tbaa !507
  %40 = icmp eq ptr %39, null
  br i1 %40, label %_ZNK15ref_vector_coreI4expr19ref_manager_wrapperIS0_11ast_managerEE4sizeEv.exit, label %41

41:                                               ; preds = %32
  %42 = getelementptr inbounds i8, ptr %39, i64 -4
  %43 = load i32, ptr %42, align 4, !tbaa !508
  br label %_ZNK15ref_vector_coreI4expr19ref_manager_wrapperIS0_11ast_managerEE4sizeEv.exit

_ZNK15ref_vector_coreI4expr19ref_manager_wrapperIS0_11ast_managerEE4sizeEv.exit: ; preds = %32, %41
  %.0.i.i = phi i32 [ %43, %41 ], [ 0, %32 ]
  %44 = load ptr, ptr %9, align 8, !tbaa !536
  %45 = icmp eq ptr %44, null
  br i1 %45, label %52, label %46

46:                                               ; preds = %_ZNK15ref_vector_coreI4expr19ref_manager_wrapperIS0_11ast_managerEE4sizeEv.exit
  %47 = getelementptr inbounds i8, ptr %44, i64 -4
  %48 = load i32, ptr %47, align 4, !tbaa !508
  %49 = getelementptr inbounds i8, ptr %44, i64 -8
  %50 = load i32, ptr %49, align 4, !tbaa !508
  %51 = icmp eq i32 %48, %50
  br i1 %51, label %52, label %53

52:                                               ; preds = %46, %_ZNK15ref_vector_coreI4expr19ref_manager_wrapperIS0_11ast_managerEE4sizeEv.exit
  invoke void @_ZN6vectorIjLb0EjE13expand_vectorEv(ptr noundef nonnull align 8 dereferenceable(8) %9)
          to label %.noexc7 unwind label %70

.noexc7:                                          ; preds = %52
  %.pre.i4 = load ptr, ptr %9, align 8, !tbaa !536
  %.phi.trans.insert.i5 = getelementptr inbounds i8, ptr %.pre.i4, i64 -4
  %.pre2.i6 = load i32, ptr %.phi.trans.insert.i5, align 4, !tbaa !508
  br label %53

53:                                               ; preds = %.noexc7, %46
  %54 = phi i32 [ %.pre2.i6, %.noexc7 ], [ %48, %46 ]
  %55 = phi ptr [ %.pre.i4, %.noexc7 ], [ %44, %46 ]
  %56 = getelementptr inbounds i8, ptr %55, i64 -4
  %57 = zext i32 %54 to i64
  %58 = getelementptr inbounds nuw i32, ptr %55, i64 %57
  store i32 %.0.i.i, ptr %58, align 4, !tbaa !508
  %59 = add i32 %54, 1
  store i32 %59, ptr %56, align 4, !tbaa !508
  %60 = load ptr, ptr %11, align 8, !tbaa !547
  call void @llvm.lifetime.start.p0(i64 8, ptr nonnull %2)
  call void @llvm.lifetime.start.p0(i64 8, ptr nonnull %3)
  store ptr %60, ptr %2, align 8, !tbaa !548
  store ptr %12, ptr %3, align 8, !tbaa !549
  %61 = load ptr, ptr %13, align 8, !tbaa !542
  %.not.i.i = icmp eq ptr %61, null
  br i1 %.not.i.i, label %62, label %63

62:                                               ; preds = %53
  invoke void @_ZSt25__throw_bad_function_callv() #27
          to label %.noexc9 unwind label %.loopexit.split-lp

.noexc9:                                          ; preds = %62
  unreachable

63:                                               ; preds = %53
  %64 = load ptr, ptr %15, align 8, !tbaa !551
  invoke void %64(ptr noundef nonnull align 8 dereferenceable(32) %14, ptr noundef nonnull align 8 dereferenceable(8) %2, ptr noundef nonnull align 8 dereferenceable(8) %3)
          to label %65 unwind label %.loopexit

65:                                               ; preds = %63
  call void @llvm.lifetime.end.p0(i64 8, ptr nonnull %2)
  call void @llvm.lifetime.end.p0(i64 8, ptr nonnull %3)
  store i8 %.pre, ptr %6, align 8, !tbaa !545
  %66 = load i32, ptr %4, align 8, !tbaa !544
  %67 = add i32 %66, -1
  store i32 %67, ptr %4, align 8, !tbaa !544
  %.not = icmp eq i32 %67, 0
  br i1 %.not, label %._crit_edge, label %16, !llvm.loop !552

.loopexit:                                        ; preds = %16, %63
  %lpad.loopexit = landingpad { ptr, i32 }
          cleanup
  br label %72

.loopexit.split-lp:                               ; preds = %62
  %lpad.loopexit.split-lp = landingpad { ptr, i32 }
          cleanup
  br label %72

68:                                               ; preds = %31
  %69 = landingpad { ptr, i32 }
          cleanup
  br label %72

70:                                               ; preds = %52
  %71 = landingpad { ptr, i32 }
          cleanup
  br label %72

72:                                               ; preds = %.loopexit, %.loopexit.split-lp, %70, %68
  %.pn = phi { ptr, i32 } [ %71, %70 ], [ %69, %68 ], [ %lpad.loopexit, %.loopexit ], [ %lpad.loopexit.split-lp, %.loopexit.split-lp ]
  store i8 %.pre, ptr %6, align 8, !tbaa !545
  resume { ptr, i32 } %.pn

._crit_edge:                                      ; preds = %65, %1
  ret void
}